; Function Attrs: mustprogress nofree norecurse nosync nounwind willreturn memory(argmem: readwrite, inaccessiblemem: readwrite) uwtable
define void @_ZThn16_N3gmx23ExpandedEnsembleElement23registerLoggingCallbackEv(ptr dead_on_unwind noalias nocapture writable writeonly sret(%"class.std::optional.17") align 8 %0, ptr noundef %1) unnamed_addr #6 align 2 personality ptr @__gxx_personality_v0 {
  tail call void @llvm.experimental.noalias.scope.decl(metadata !5)
  %3 = getelementptr inbounds i8, ptr %1, i64 16
  %4 = load i8, ptr %3, align 8, !noalias !5
  %5 = trunc i8 %4 to i1
  br i1 %5, label %6, label %_ZN3gmx23ExpandedEnsembleElement23registerLoggingCallbackEv.exit

6:                                                ; preds = %2
  %7 = getelementptr inbounds i8, ptr %1, i64 -16
  %8 = getelementptr inbounds i8, ptr %0, i64 16
  %9 = getelementptr inbounds i8, ptr %0, i64 24
  %10 = getelementptr inbounds i8, ptr %0, i64 8
  store i64 0, ptr %10, align 8, !alias.scope !5
  %11 = ptrtoint ptr %7 to i64
  store i64 %11, ptr %0, align 8, !alias.scope !5
  store ptr @"_ZNSt17_Function_handlerIFvldEZN3gmx23ExpandedEnsembleElement23registerLoggingCallbackEvE3$_0E9_M_invokeERKSt9_Any_dataOlOd", ptr %9, align 8, !alias.scope !5
  store ptr @"_ZNSt17_Function_handlerIFvldEZN3gmx23ExpandedEnsembleElement23registerLoggingCallbackEvE3$_0E10_M_managerERSt9_Any_dataRKS5_St18_Manager_operation", ptr %8, align 8, !alias.scope !5
  br label %_ZN3gmx23ExpandedEnsembleElement23registerLoggingCallbackEv.exit

_ZN3gmx23ExpandedEnsembleElement23registerLoggingCallbackEv.exit: ; preds = %2, %6
  %.sink.i = phi i8 [ 1, %6 ], [ 0, %2 ]
  %12 = getelementptr inbounds i8, ptr %0, i64 32
  store i8 %.sink.i, ptr %12, align 8, !alias.scope !5
  ret void
}